target datalayout = "e-m:e-p270:32:32-p271:32:32-p272:64:64-i64:64-i128:128-f80:128-n8:16:32:64-S128"
target triple = "x86_64-pc-linux-gnu"

%struct.cycleCtr = type { i32, i32, i32 }

; Function Attrs: nounwind uwtable
define ptr @setCycleCtrPtr() #0 {
  %1 = alloca ptr, align 8
  call void @llvm.lifetime.start.p0(i64 8, ptr %1) #7
  %2 = call noalias ptr @malloc(i64 noundef 12) #9
  store ptr %2, ptr %1, align 8, !tbaa !14
  %3 = load ptr, ptr %1, align 8, !tbaa !14
  %4 = getelementptr inbounds nuw %struct.cycleCtr, ptr %3, i32 0, i32 0
  store i32 0, ptr %4, align 4, !tbaa !22
  %5 = load ptr, ptr %1, align 8, !tbaa !14
  %6 = getelementptr inbounds nuw %struct.cycleCtr, ptr %5, i32 0, i32 1
  store i32 0, ptr %6, align 4, !tbaa !24
  %7 = load ptr, ptr %1, align 8, !tbaa !14
  %8 = getelementptr inbounds nuw %struct.cycleCtr, ptr %7, i32 0, i32 2
  store i32 111111111, ptr %8, align 4, !tbaa !25
  %9 = load ptr, ptr %1, align 8, !tbaa !14
  call void @llvm.lifetime.end.p0(i64 8, ptr %1) #7
  ret ptr %9
}