; Function Attrs: mustprogress nofree nounwind willreturn memory(write, argmem: none, inaccessiblemem: readwrite) uwtable
define noalias noundef ptr @setCycleCtrPtr() local_unnamed_addr #9 {
  %1 = tail call noalias dereferenceable_or_null(12) ptr @malloc(i64 noundef 12) #21
  store i32 0, ptr %1, align 4, !tbaa !19
  %2 = getelementptr inbounds nuw i8, ptr %1, i64 4
  store i32 0, ptr %2, align 4, !tbaa !21
  %3 = getelementptr inbounds nuw i8, ptr %1, i64 8
  store i32 111111111, ptr %3, align 4, !tbaa !22
  ret ptr %1
}